; Function Attrs: mustprogress uwtable
define void @_ZN5folly14RequestContext10setContextERKSt10shared_ptrIS0_E(ptr dead_on_unwind noalias writable sret(%"class.std::shared_ptr") align 8 %0, ptr noundef nonnull readonly align 8 captures(none) dereferenceable(16) %1) local_unnamed_addr #7 align 2 personality ptr @__gxx_personality_v0 {
  %3 = alloca %"class.std::shared_ptr", align 8
  call void @llvm.lifetime.start.p0(i64 16, ptr nonnull %3) #10
  tail call void @llvm.experimental.noalias.scope.decl(metadata !646)
  %4 = load ptr, ptr %1, align 8, !tbaa !380, !noalias !646
  store ptr %4, ptr %3, align 8, !tbaa !380, !alias.scope !646
  %5 = getelementptr inbounds nuw i8, ptr %3, i64 8
  %6 = getelementptr inbounds nuw i8, ptr %1, i64 8
  %7 = load ptr, ptr %6, align 8, !tbaa !388, !noalias !646
  store ptr %7, ptr %5, align 8, !tbaa !388, !alias.scope !646
  %.not.i.i.i.i = icmp eq ptr %7, null
  br i1 %.not.i.i.i.i, label %_ZN5folly4copyIRKSt10shared_ptrINS_14RequestContextEEEEDTclsr6detailE8decay_0_IT_ELi0EEEOS6_.exit, label %8

8:                                                ; preds = %2
  %9 = getelementptr inbounds nuw i8, ptr %7, i64 8
  %10 = load i8, ptr @__libc_single_threaded, align 1, !tbaa !94, !noalias !646
  %.not.i.i.i.i.i = icmp eq i8 %10, 0
  br i1 %.not.i.i.i.i.i, label %14, label %11

11:                                               ; preds = %8
  %12 = load i32, ptr %9, align 4, !tbaa !30, !noalias !646
  %13 = add nsw i32 %12, 1
  store i32 %13, ptr %9, align 4, !tbaa !30, !noalias !646
  br label %_ZN5folly4copyIRKSt10shared_ptrINS_14RequestContextEEEEDTclsr6detailE8decay_0_IT_ELi0EEEOS6_.exit

14:                                               ; preds = %8
  %15 = atomicrmw volatile add ptr %9, i32 1 acq_rel, align 4, !noalias !646
  br label %_ZN5folly4copyIRKSt10shared_ptrINS_14RequestContextEEEEDTclsr6detailE8decay_0_IT_ELi0EEEOS6_.exit

_ZN5folly4copyIRKSt10shared_ptrINS_14RequestContextEEEEDTclsr6detailE8decay_0_IT_ELi0EEEOS6_.exit: ; preds = %2, %11, %14
  invoke void @_ZN5folly14RequestContext10setContextEOSt10shared_ptrIS0_E(ptr dead_on_unwind writable sret(%"class.std::shared_ptr") align 8 %0, ptr noundef nonnull align 8 dereferenceable(16) %3)
          to label %16 unwind label %39

16:                                               ; preds = %_ZN5folly4copyIRKSt10shared_ptrINS_14RequestContextEEEEDTclsr6detailE8decay_0_IT_ELi0EEEOS6_.exit
  %17 = load ptr, ptr %5, align 8, !tbaa !388
  %.not.i.i = icmp eq ptr %17, null
  br i1 %.not.i.i, label %_ZNSt12__shared_ptrIN5folly14RequestContextELN9__gnu_cxx12_Lock_policyE2EED2Ev.exit, label %18

18:                                               ; preds = %16
  %19 = getelementptr inbounds nuw i8, ptr %17, i64 8
  %20 = load atomic i64, ptr %19 acquire, align 8
  %21 = icmp eq i64 %20, 4294967297
  %22 = trunc i64 %20 to i32
  br i1 %21, label %23, label %31

23:                                               ; preds = %18
  store i32 0, ptr %19, align 8, !tbaa !385
  %24 = getelementptr inbounds nuw i8, ptr %17, i64 12
  store i32 0, ptr %24, align 4, !tbaa !387
  %25 = load ptr, ptr %17, align 8, !tbaa !135
  %26 = getelementptr inbounds nuw i8, ptr %25, i64 16
  %27 = load ptr, ptr %26, align 8
  tail call void %27(ptr noundef nonnull align 8 dereferenceable(16) %17) #10
  %28 = load ptr, ptr %17, align 8, !tbaa !135
  %29 = getelementptr inbounds nuw i8, ptr %28, i64 24
  %30 = load ptr, ptr %29, align 8
  tail call void %30(ptr noundef nonnull align 8 dereferenceable(16) %17) #10
  br label %_ZNSt12__shared_ptrIN5folly14RequestContextELN9__gnu_cxx12_Lock_policyE2EED2Ev.exit

31:                                               ; preds = %18
  %32 = load i8, ptr @__libc_single_threaded, align 1, !tbaa !94
  %.not.i.i.i = icmp eq i8 %32, 0
  br i1 %.not.i.i.i, label %35, label %33

33:                                               ; preds = %31
  %34 = add nsw i32 %22, -1
  store i32 %34, ptr %19, align 4, !tbaa !30
  br label %_ZN9__gnu_cxx27__exchange_and_add_dispatchEPii.exit.i.i.i

35:                                               ; preds = %31
  %36 = atomicrmw volatile add ptr %19, i32 -1 acq_rel, align 4
  br label %_ZN9__gnu_cxx27__exchange_and_add_dispatchEPii.exit.i.i.i

_ZN9__gnu_cxx27__exchange_and_add_dispatchEPii.exit.i.i.i: ; preds = %35, %33
  %.0.i.i.i.i = phi i32 [ %22, %33 ], [ %36, %35 ]
  %37 = icmp eq i32 %.0.i.i.i.i, 1
  br i1 %37, label %38, label %_ZNSt12__shared_ptrIN5folly14RequestContextELN9__gnu_cxx12_Lock_policyE2EED2Ev.exit, !prof !63

38:                                               ; preds = %_ZN9__gnu_cxx27__exchange_and_add_dispatchEPii.exit.i.i.i
  tail call void @_ZNSt16_Sp_counted_baseILN9__gnu_cxx12_Lock_policyE2EE24_M_release_last_use_coldEv(ptr noundef nonnull align 8 dereferenceable(16) %17) #10
  br label %_ZNSt12__shared_ptrIN5folly14RequestContextELN9__gnu_cxx12_Lock_policyE2EED2Ev.exit

_ZNSt12__shared_ptrIN5folly14RequestContextELN9__gnu_cxx12_Lock_policyE2EED2Ev.exit: ; preds = %16, %23, %_ZN9__gnu_cxx27__exchange_and_add_dispatchEPii.exit.i.i.i, %38
  call void @llvm.lifetime.end.p0(i64 16, ptr nonnull %3) #10
  ret void

39:                                               ; preds = %_ZN5folly4copyIRKSt10shared_ptrINS_14RequestContextEEEEDTclsr6detailE8decay_0_IT_ELi0EEEOS6_.exit
  %40 = landingpad { ptr, i32 }
          cleanup
  call void @_ZNSt12__shared_ptrIN5folly14RequestContextELN9__gnu_cxx12_Lock_policyE2EED2Ev(ptr noundef nonnull align 8 dereferenceable(16) %3) #10
  call void @llvm.lifetime.end.p0(i64 16, ptr nonnull %3) #10
  resume { ptr, i32 } %40
}